target datalayout = "e-m:e-p270:32:32-p271:32:32-p272:64:64-i64:64-i128:128-f80:128-n8:16:32:64-S128"
target triple = "x86_64-pc-linux-gnu"

%"class.std::vector" = type { %"struct.std::_Vector_base" }
%"struct.std::_Vector_base" = type { %"struct.std::_Vector_base<float, std::allocator<float>>::_Vector_impl" }
%"struct.std::_Vector_base<float, std::allocator<float>>::_Vector_impl" = type { %"struct.std::_Vector_base<float, std::allocator<float>>::_Vector_impl_data" }
%"struct.std::_Vector_base<float, std::allocator<float>>::_Vector_impl_data" = type { ptr, ptr, ptr }
%"class.cv::detail::tracking::online_boosting::BaseClassifier" = type <{ ptr, ptr, i8, [3 x i8], i32, i32, i32, %"class.std::vector", %"class.std::vector", i32, [4 x i8] }>

@_ZN2cv6detail8tracking15online_boosting25WeakClassifierHaarFeatureC1Ev = hidden unnamed_addr alias void (ptr), ptr @_ZN2cv6detail8tracking15online_boosting25WeakClassifierHaarFeatureC2Ev

; Function Attrs: mustprogress nounwind uwtable
define linkonce_odr hidden noundef nonnull align 4 dereferenceable(4) ptr @_ZNSt6vectorIfSaIfEEixEm(ptr noundef nonnull align 8 dereferenceable(24) %0, i64 noundef %1) #5 comdat align 2 {
  %3 = alloca ptr, align 8
  %4 = alloca i64, align 8
  store ptr %0, ptr %3, align 8, !tbaa !46
  store i64 %1, ptr %4, align 8, !tbaa !58
  %5 = load ptr, ptr %3, align 8
  %6 = getelementptr inbounds nuw %"struct.std::_Vector_base", ptr %5, i32 0, i32 0
  %7 = getelementptr inbounds nuw %"struct.std::_Vector_base<float, std::allocator<float>>::_Vector_impl_data", ptr %6, i32 0, i32 0
  %8 = load ptr, ptr %7, align 8, !tbaa !61
  %9 = load i64, ptr %4, align 8, !tbaa !58
  %10 = getelementptr inbounds nuw float, ptr %8, i64 %9
  ret ptr %10
}

; Function Attrs: mustprogress uwtable
define hidden void @_ZN2cv6detail8tracking15online_boosting14BaseClassifier21replaceWeakClassifierEi(ptr noundef nonnull align 8 dereferenceable(84) %0, i32 noundef %1) #4 align 2 personality ptr @__gxx_personality_v0 {
  %3 = alloca ptr, align 8
  %4 = alloca i32, align 4
  %5 = alloca ptr, align 8
  %6 = alloca i32, align 4
  store ptr %0, ptr %3, align 8, !tbaa !66
  store i32 %1, ptr %4, align 4, !tbaa !8
  %7 = load ptr, ptr %3, align 8
  %8 = getelementptr inbounds nuw %"class.cv::detail::tracking::online_boosting::BaseClassifier", ptr %7, i32 0, i32 1
  %9 = load ptr, ptr %8, align 8, !tbaa !70
  %10 = load i32, ptr %4, align 4, !tbaa !8
  %11 = sext i32 %10 to i64
  %12 = getelementptr inbounds ptr, ptr %9, i64 %11
  %13 = load ptr, ptr %12, align 8, !tbaa !120
  %14 = icmp eq ptr %13, null
  br i1 %14, label %19, label %15

15:                                               ; preds = %2
  %16 = load ptr, ptr %13, align 8, !tbaa !14
  %17 = getelementptr inbounds ptr, ptr %16, i64 1
  %18 = load ptr, ptr %17, align 8
  call void %18(ptr noundef nonnull align 8 dereferenceable(24) %13) #3
  br label %19

19:                                               ; preds = %15, %2
  %20 = getelementptr inbounds nuw %"class.cv::detail::tracking::online_boosting::BaseClassifier", ptr %7, i32 0, i32 1
  %21 = load ptr, ptr %20, align 8, !tbaa !70
  %22 = getelementptr inbounds nuw %"class.cv::detail::tracking::online_boosting::BaseClassifier", ptr %7, i32 0, i32 6
  %23 = load i32, ptr %22, align 4, !tbaa !132
  %24 = sext i32 %23 to i64
  %25 = getelementptr inbounds ptr, ptr %21, i64 %24
  %26 = load ptr, ptr %25, align 8, !tbaa !120
  %27 = getelementptr inbounds nuw %"class.cv::detail::tracking::online_boosting::BaseClassifier", ptr %7, i32 0, i32 1
  %28 = load ptr, ptr %27, align 8, !tbaa !70
  %29 = load i32, ptr %4, align 4, !tbaa !8
  %30 = sext i32 %29 to i64
  %31 = getelementptr inbounds ptr, ptr %28, i64 %30
  store ptr %26, ptr %31, align 8, !tbaa !120
  %32 = getelementptr inbounds nuw %"class.cv::detail::tracking::online_boosting::BaseClassifier", ptr %7, i32 0, i32 8
  %33 = getelementptr inbounds nuw %"class.cv::detail::tracking::online_boosting::BaseClassifier", ptr %7, i32 0, i32 6
  %34 = load i32, ptr %33, align 4, !tbaa !132
  %35 = sext i32 %34 to i64
  %36 = call noundef nonnull align 4 dereferenceable(4) ptr @_ZNSt6vectorIfSaIfEEixEm(ptr noundef nonnull align 8 dereferenceable(24) %32, i64 noundef %35) #3
  %37 = load float, ptr %36, align 4, !tbaa !38
  %38 = getelementptr inbounds nuw %"class.cv::detail::tracking::online_boosting::BaseClassifier", ptr %7, i32 0, i32 8
  %39 = load i32, ptr %4, align 4, !tbaa !8
  %40 = sext i32 %39 to i64
  %41 = call noundef nonnull align 4 dereferenceable(4) ptr @_ZNSt6vectorIfSaIfEEixEm(ptr noundef nonnull align 8 dereferenceable(24) %38, i64 noundef %40) #3
  store float %37, ptr %41, align 4, !tbaa !38
  %42 = getelementptr inbounds nuw %"class.cv::detail::tracking::online_boosting::BaseClassifier", ptr %7, i32 0, i32 8
  %43 = getelementptr inbounds nuw %"class.cv::detail::tracking::online_boosting::BaseClassifier", ptr %7, i32 0, i32 6
  %44 = load i32, ptr %43, align 4, !tbaa !132
  %45 = sext i32 %44 to i64
  %46 = call noundef nonnull align 4 dereferenceable(4) ptr @_ZNSt6vectorIfSaIfEEixEm(ptr noundef nonnull align 8 dereferenceable(24) %42, i64 noundef %45) #3
  store float 1.000000e+00, ptr %46, align 4, !tbaa !38
  %47 = getelementptr inbounds nuw %"class.cv::detail::tracking::online_boosting::BaseClassifier", ptr %7, i32 0, i32 7
  %48 = getelementptr inbounds nuw %"class.cv::detail::tracking::online_boosting::BaseClassifier", ptr %7, i32 0, i32 6
  %49 = load i32, ptr %48, align 4, !tbaa !132
  %50 = sext i32 %49 to i64
  %51 = call noundef nonnull align 4 dereferenceable(4) ptr @_ZNSt6vectorIfSaIfEEixEm(ptr noundef nonnull align 8 dereferenceable(24) %47, i64 noundef %50) #3
  %52 = load float, ptr %51, align 4, !tbaa !38
  %53 = getelementptr inbounds nuw %"class.cv::detail::tracking::online_boosting::BaseClassifier", ptr %7, i32 0, i32 7
  %54 = load i32, ptr %4, align 4, !tbaa !8
  %55 = sext i32 %54 to i64
  %56 = call noundef nonnull align 4 dereferenceable(4) ptr @_ZNSt6vectorIfSaIfEEixEm(ptr noundef nonnull align 8 dereferenceable(24) %53, i64 noundef %55) #3
  store float %52, ptr %56, align 4, !tbaa !38
  %57 = getelementptr inbounds nuw %"class.cv::detail::tracking::online_boosting::BaseClassifier", ptr %7, i32 0, i32 7
  %58 = getelementptr inbounds nuw %"class.cv::detail::tracking::online_boosting::BaseClassifier", ptr %7, i32 0, i32 6
  %59 = load i32, ptr %58, align 4, !tbaa !132
  %60 = sext i32 %59 to i64
  %61 = call noundef nonnull align 4 dereferenceable(4) ptr @_ZNSt6vectorIfSaIfEEixEm(ptr noundef nonnull align 8 dereferenceable(24) %57, i64 noundef %60) #3
  store float 1.000000e+00, ptr %61, align 4, !tbaa !38
  %62 = call noalias noundef nonnull ptr @_Znwm(i64 noundef 24) #18
  invoke void @_ZN2cv6detail8tracking15online_boosting25WeakClassifierHaarFeatureC1Ev(ptr noundef nonnull align 8 dereferenceable(24) %62)
          to label %63 unwind label %70

63:                                               ; preds = %19
  %64 = getelementptr inbounds nuw %"class.cv::detail::tracking::online_boosting::BaseClassifier", ptr %7, i32 0, i32 1
  %65 = load ptr, ptr %64, align 8, !tbaa !70
  %66 = getelementptr inbounds nuw %"class.cv::detail::tracking::online_boosting::BaseClassifier", ptr %7, i32 0, i32 6
  %67 = load i32, ptr %66, align 4, !tbaa !132
  %68 = sext i32 %67 to i64
  %69 = getelementptr inbounds ptr, ptr %65, i64 %68
  store ptr %62, ptr %69, align 8, !tbaa !120
  ret void

70:                                               ; preds = %19
  %71 = landingpad { ptr, i32 }
          cleanup
  %72 = extractvalue { ptr, i32 } %71, 0
  store ptr %72, ptr %5, align 8
  %73 = extractvalue { ptr, i32 } %71, 1
  store i32 %73, ptr %6, align 4
  call void @_ZdlPv(ptr noundef %62) #19
  br label %74

74:                                               ; preds = %70
  %75 = load ptr, ptr %5, align 8
  %76 = load i32, ptr %6, align 4
  %77 = insertvalue { ptr, i32 } poison, ptr %75, 0
  %78 = insertvalue { ptr, i32 } %77, i32 %76, 1
  resume { ptr, i32 } %78
}