; Function Attrs: mustprogress uwtable
define hidden void @_ZN2cv6detail8tracking15online_boosting14BaseClassifier21replaceWeakClassifierEi(ptr noundef nonnull readonly align 8 captures(none) dereferenceable(84) %0, i32 noundef %1) local_unnamed_addr #3 align 2 personality ptr @__gxx_personality_v0 {
  %3 = getelementptr inbounds nuw i8, ptr %0, i64 8
  %4 = load ptr, ptr %3, align 8, !tbaa !67
  %5 = sext i32 %1 to i64
  %6 = getelementptr inbounds ptr, ptr %4, i64 %5
  %7 = load ptr, ptr %6, align 8, !tbaa !81
  %8 = icmp eq ptr %7, null
  br i1 %8, label %13, label %9

9:                                                ; preds = %2
  %10 = load ptr, ptr %7, align 8, !tbaa !3
  %11 = getelementptr inbounds nuw i8, ptr %10, i64 8
  %12 = load ptr, ptr %11, align 8
  tail call void %12(ptr noundef nonnull align 8 dereferenceable(24) %7) #24
  %.pre = load ptr, ptr %3, align 8, !tbaa !67
  br label %13

13:                                               ; preds = %9, %2
  %14 = phi ptr [ %.pre, %9 ], [ %4, %2 ]
  %15 = getelementptr inbounds nuw i8, ptr %0, i64 28
  %16 = load i32, ptr %15, align 4, !tbaa !121
  %17 = sext i32 %16 to i64
  %18 = getelementptr inbounds ptr, ptr %14, i64 %17
  %19 = load ptr, ptr %18, align 8, !tbaa !81
  %20 = getelementptr inbounds ptr, ptr %14, i64 %5
  store ptr %19, ptr %20, align 8, !tbaa !81
  %21 = getelementptr inbounds nuw i8, ptr %0, i64 56
  %22 = load ptr, ptr %21, align 8, !tbaa !38
  %23 = getelementptr inbounds nuw float, ptr %22, i64 %17
  %24 = load float, ptr %23, align 4, !tbaa !34
  %25 = getelementptr inbounds nuw float, ptr %22, i64 %5
  store float %24, ptr %25, align 4, !tbaa !34
  store float 1.000000e+00, ptr %23, align 4, !tbaa !34
  %26 = getelementptr inbounds nuw i8, ptr %0, i64 32
  %27 = load ptr, ptr %26, align 8, !tbaa !38
  %28 = getelementptr inbounds nuw float, ptr %27, i64 %17
  %29 = load float, ptr %28, align 4, !tbaa !34
  %30 = getelementptr inbounds nuw float, ptr %27, i64 %5
  store float %29, ptr %30, align 4, !tbaa !34
  store float 1.000000e+00, ptr %28, align 4, !tbaa !34
  %31 = tail call noalias noundef nonnull dereferenceable(24) ptr @_Znwm(i64 noundef 24) #25
  store ptr getelementptr inbounds nuw inrange(-16, 16) (i8, ptr @_ZTVN2cv6detail8tracking15online_boosting25WeakClassifierHaarFeatureE, i64 16), ptr %31, align 8, !tbaa !3
  %32 = getelementptr inbounds nuw i8, ptr %31, i64 8
  store float 1.000000e+00, ptr %32, align 8, !tbaa !139
  %33 = getelementptr inbounds nuw i8, ptr %31, i64 12
  store float 0.000000e+00, ptr %33, align 4, !tbaa !140
  %34 = invoke noalias noundef nonnull dereferenceable(32) ptr @_Znwm(i64 noundef 32) #25
          to label %.noexc unwind label %55

.noexc:                                           ; preds = %13
  store ptr getelementptr inbounds nuw inrange(-16, 16) (i8, ptr @_ZTVN2cv6detail8tracking15online_boosting26EstimatedGaussDistributionE, i64 16), ptr %34, align 8, !tbaa !3
  %35 = getelementptr inbounds nuw i8, ptr %34, i64 8
  store float 0.000000e+00, ptr %35, align 8, !tbaa !127
  %36 = getelementptr inbounds nuw i8, ptr %34, i64 12
  store float 1.000000e+00, ptr %36, align 4, !tbaa !130
  %37 = getelementptr inbounds nuw i8, ptr %34, i64 16
  store float 1.000000e+03, ptr %37, align 8, !tbaa !124
  %38 = getelementptr inbounds nuw i8, ptr %34, i64 24
  store float 0x3F847AE140000000, ptr %38, align 8, !tbaa !126
  %39 = getelementptr inbounds nuw i8, ptr %34, i64 20
  store float 1.000000e+03, ptr %39, align 4, !tbaa !128
  %40 = getelementptr inbounds nuw i8, ptr %34, i64 28
  store float 0x3F847AE140000000, ptr %40, align 4, !tbaa !129
  %41 = invoke noalias noundef nonnull dereferenceable(32) ptr @_Znwm(i64 noundef 32) #25
          to label %.noexc6 unwind label %55

.noexc6:                                          ; preds = %.noexc
  store ptr getelementptr inbounds nuw inrange(-16, 16) (i8, ptr @_ZTVN2cv6detail8tracking15online_boosting26EstimatedGaussDistributionE, i64 16), ptr %41, align 8, !tbaa !3
  %42 = getelementptr inbounds nuw i8, ptr %41, i64 8
  store float 0.000000e+00, ptr %42, align 8, !tbaa !127
  %43 = getelementptr inbounds nuw i8, ptr %41, i64 12
  store float 1.000000e+00, ptr %43, align 4, !tbaa !130
  %44 = getelementptr inbounds nuw i8, ptr %41, i64 16
  store float 1.000000e+03, ptr %44, align 8, !tbaa !124
  %45 = getelementptr inbounds nuw i8, ptr %41, i64 24
  store float 0x3F847AE140000000, ptr %45, align 8, !tbaa !126
  %46 = getelementptr inbounds nuw i8, ptr %41, i64 20
  store float 1.000000e+03, ptr %46, align 4, !tbaa !128
  %47 = getelementptr inbounds nuw i8, ptr %41, i64 28
  store float 0x3F847AE140000000, ptr %47, align 4, !tbaa !129
  %48 = invoke noalias noundef nonnull dereferenceable(32) ptr @_Znwm(i64 noundef 32) #25
          to label %49 unwind label %55

49:                                               ; preds = %.noexc6
  store ptr getelementptr inbounds nuw inrange(-16, 16) (i8, ptr @_ZTVN2cv6detail8tracking15online_boosting19ClassifierThresholdE, i64 16), ptr %48, align 8, !tbaa !3
  %50 = getelementptr inbounds nuw i8, ptr %48, i64 8
  store ptr %34, ptr %50, align 8, !tbaa !123
  %51 = getelementptr inbounds nuw i8, ptr %48, i64 16
  store ptr %41, ptr %51, align 8, !tbaa !131
  %52 = getelementptr inbounds nuw i8, ptr %48, i64 24
  store float 0.000000e+00, ptr %52, align 8, !tbaa !89
  %53 = getelementptr inbounds nuw i8, ptr %48, i64 28
  store i32 0, ptr %53, align 4, !tbaa !86
  %54 = getelementptr inbounds nuw i8, ptr %31, i64 16
  store ptr %48, ptr %54, align 8, !tbaa !83
  store float 0.000000e+00, ptr %42, align 8, !tbaa !127
  store float 1.000000e+00, ptr %43, align 4, !tbaa !130
  store float 0.000000e+00, ptr %35, align 8, !tbaa !127
  store float 1.000000e+00, ptr %36, align 4, !tbaa !130
  store ptr %31, ptr %18, align 8, !tbaa !81
  ret void

55:                                               ; preds = %.noexc6, %.noexc, %13
  %56 = landingpad { ptr, i32 }
          cleanup
  tail call void @_ZdlPv(ptr noundef nonnull %31) #26
  resume { ptr, i32 } %56
}